target datalayout = "e-m:e-p270:32:32-p271:32:32-p272:64:64-i64:64-i128:128-f80:128-n8:16:32:64-S128"
target triple = "x86_64-pc-linux-gnu"

%struct.H5O_loc_t = type { ptr, i64, i8 }

@H5O_init_g = external global i8, align 1
@H5_libterm_g = external global i8, align 1
@.str = private unnamed_addr constant [104 x i8] c"generated/home/dtcxzyw/WorkSpace/Projects/compilers/llvm-opt-benchmark/bench/hdf5/hdf5/src/H5Omessage.c\00", align 1
@H5E_FUNC_g = external global i64, align 8
@H5E_CANTINIT_g = external global i64, align 8
@.str.1 = private unnamed_addr constant [32 x i8] c"interface initialization failed\00", align 1
@H5E_OHDR_g = external global i64, align 8
@H5E_CANTPIN_g = external global i64, align 8
@.str.2 = private unnamed_addr constant [28 x i8] c"unable to pin object header\00", align 1
@H5E_CANTUNPIN_g = external global i64, align 8
@.str.4 = private unnamed_addr constant [30 x i8] c"unable to unpin object header\00", align 1
@H5O_msg_class_g = external constant [26 x ptr], align 16
@H5E_CANTDELETE_g = external global i64, align 8
@.str.23 = private unnamed_addr constant [39 x i8] c"unable to remove object header message\00", align 1
@__func__.H5O_msg_remove_op = private unnamed_addr constant [18 x i8] c"H5O_msg_remove_op\00", align 1

; Function Attrs: nounwind uwtable
define i32 @H5O_msg_remove_op(ptr noundef %0, i32 noundef %1, i32 noundef %2, ptr noundef %3, ptr noundef %4, i1 noundef zeroext %5) #0 {
  %7 = alloca ptr, align 8
  %8 = alloca i32, align 4
  %9 = alloca i32, align 4
  %10 = alloca ptr, align 8
  %11 = alloca ptr, align 8
  %12 = alloca i8, align 1
  %13 = alloca ptr, align 8
  %14 = alloca ptr, align 8
  %15 = alloca i32, align 4
  %16 = alloca i8, align 1
  store ptr %0, ptr %7, align 8, !tbaa !3
  store i32 %1, ptr %8, align 4, !tbaa !8
  store i32 %2, ptr %9, align 4, !tbaa !8
  store ptr %3, ptr %10, align 8, !tbaa !10
  store ptr %4, ptr %11, align 8, !tbaa !10
  %17 = zext i1 %5 to i8
  store i8 %17, ptr %12, align 1, !tbaa !13
  call void @llvm.lifetime.start.p0(i64 8, ptr %13) #5
  store ptr null, ptr %13, align 8, !tbaa !11
  call void @llvm.lifetime.start.p0(i64 8, ptr %14) #5
  call void @llvm.lifetime.start.p0(i64 4, ptr %15) #5
  store i32 -1, ptr %15, align 4, !tbaa !8
  call void @llvm.lifetime.start.p0(i64 1, ptr %16) #5
  store i8 0, ptr %16, align 1, !tbaa !13
  %18 = load i8, ptr @H5O_init_g, align 1, !tbaa !13, !range !15, !noundef !16
  %19 = trunc i8 %18 to i1
  br i1 %19, label %24, label %20

20:                                               ; preds = %6
  %21 = load i8, ptr @H5_libterm_g, align 1, !tbaa !13, !range !15, !noundef !16
  %22 = trunc i8 %21 to i1
  %23 = xor i1 %22, true
  br label %24

24:                                               ; preds = %20, %6
  %25 = phi i1 [ false, %6 ], [ %23, %20 ]
  %26 = xor i1 %25, true
  %27 = xor i1 %26, true
  %28 = zext i1 %27 to i32
  %29 = sext i32 %28 to i64
  %30 = call i64 @llvm.expect.i64(i64 %29, i64 0)
  %31 = icmp ne i64 %30, 0
  br i1 %31, label %32, label %55

32:                                               ; preds = %24
  store i8 1, ptr @H5O_init_g, align 1, !tbaa !13
  %33 = call i32 @H5O__init_package()
  %34 = icmp slt i32 %33, 0
  br i1 %34, label %35, label %54

35:                                               ; preds = %32
  store i8 0, ptr @H5O_init_g, align 1, !tbaa !13
  br label %36

36:                                               ; preds = %35
  br label %37

37:                                               ; preds = %36
  br label %38

38:                                               ; preds = %37
  %39 = load i64, ptr @H5E_FUNC_g, align 8, !tbaa !17
  %40 = load i64, ptr @H5E_CANTINIT_g, align 8, !tbaa !17
  %41 = call i32 (ptr, ptr, i32, i64, i64, ptr, ...) @H5E_printf_stack(ptr noundef @.str, ptr noundef @__func__.H5O_msg_remove_op, i32 noundef 909, i64 noundef %39, i64 noundef %40, ptr noundef @.str.1)
  br label %42

42:                                               ; preds = %38
  br label %43

43:                                               ; preds = %42
  store i8 1, ptr %16, align 1, !tbaa !13
  %44 = load i8, ptr %16, align 1, !tbaa !13, !range !15, !noundef !16
  %45 = trunc i8 %44 to i1
  %46 = zext i1 %45 to i8
  store i8 %46, ptr %16, align 1, !tbaa !13
  br label %47

47:                                               ; preds = %43
  br label %48

48:                                               ; preds = %47
  br label %49

49:                                               ; preds = %48
  store i32 -1, ptr %15, align 4, !tbaa !8
  br label %130

50:                                               ; No predecessors!
  br label %51

51:                                               ; preds = %50
  br label %52

52:                                               ; preds = %51
  br label %53

53:                                               ; preds = %52
  br label %54

54:                                               ; preds = %53, %32
  br label %55

55:                                               ; preds = %54, %24
  %56 = load i8, ptr @H5O_init_g, align 1, !tbaa !13, !range !15, !noundef !16
  %57 = trunc i8 %56 to i1
  br i1 %57, label %62, label %58

58:                                               ; preds = %55
  %59 = load i8, ptr @H5_libterm_g, align 1, !tbaa !13, !range !15, !noundef !16
  %60 = trunc i8 %59 to i1
  %61 = xor i1 %60, true
  br label %62

62:                                               ; preds = %58, %55
  %63 = phi i1 [ true, %55 ], [ %61, %58 ]
  %64 = xor i1 %63, true
  %65 = xor i1 %64, true
  %66 = zext i1 %65 to i32
  %67 = sext i32 %66 to i64
  %68 = call i64 @llvm.expect.i64(i64 %67, i64 1)
  %69 = icmp ne i64 %68, 0
  br i1 %69, label %70, label %154

70:                                               ; preds = %62
  %71 = load i32, ptr %8, align 4, !tbaa !8
  %72 = zext i32 %71 to i64
  %73 = getelementptr inbounds nuw [26 x ptr], ptr @H5O_msg_class_g, i64 0, i64 %72
  %74 = load ptr, ptr %73, align 8, !tbaa !23
  store ptr %74, ptr %14, align 8, !tbaa !23
  %75 = load ptr, ptr %7, align 8, !tbaa !3
  %76 = call ptr @H5O_pin(ptr noundef %75)
  store ptr %76, ptr %13, align 8, !tbaa !11
  %77 = icmp eq ptr null, %76
  br i1 %77, label %78, label %97

78:                                               ; preds = %70
  br label %79

79:                                               ; preds = %78
  br label %80

80:                                               ; preds = %79
  br label %81

81:                                               ; preds = %80
  %82 = load i64, ptr @H5E_OHDR_g, align 8, !tbaa !17
  %83 = load i64, ptr @H5E_CANTPIN_g, align 8, !tbaa !17
  %84 = call i32 (ptr, ptr, i32, i64, i64, ptr, ...) @H5E_printf_stack(ptr noundef @.str, ptr noundef @__func__.H5O_msg_remove_op, i32 noundef 922, i64 noundef %82, i64 noundef %83, ptr noundef @.str.2)
  br label %85

85:                                               ; preds = %81
  br label %86

86:                                               ; preds = %85
  store i8 1, ptr %16, align 1, !tbaa !13
  %87 = load i8, ptr %16, align 1, !tbaa !13, !range !15, !noundef !16
  %88 = trunc i8 %87 to i1
  %89 = zext i1 %88 to i8
  store i8 %89, ptr %16, align 1, !tbaa !13
  br label %90

90:                                               ; preds = %86
  br label %91

91:                                               ; preds = %90
  br label %92

92:                                               ; preds = %91
  store i32 -1, ptr %15, align 4, !tbaa !8
  br label %130

93:                                               ; No predecessors!
  br label %94

94:                                               ; preds = %93
  br label %95

95:                                               ; preds = %94
  br label %96

96:                                               ; preds = %95
  br label %97

97:                                               ; preds = %96, %70
  %98 = load ptr, ptr %7, align 8, !tbaa !3
  %99 = getelementptr inbounds nuw %struct.H5O_loc_t, ptr %98, i32 0, i32 0
  %100 = load ptr, ptr %99, align 8, !tbaa !19
  %101 = load ptr, ptr %13, align 8, !tbaa !11
  %102 = load ptr, ptr %14, align 8, !tbaa !23
  %103 = load i32, ptr %9, align 4, !tbaa !8
  %104 = load ptr, ptr %10, align 8, !tbaa !10
  %105 = load ptr, ptr %11, align 8, !tbaa !10
  %106 = load i8, ptr %12, align 1, !tbaa !13, !range !15, !noundef !16
  %107 = trunc i8 %106 to i1
  %108 = call i32 @H5O__msg_remove_real(ptr noundef %100, ptr noundef %101, ptr noundef %102, i32 noundef %103, ptr noundef %104, ptr noundef %105, i1 noundef zeroext %107)
  store i32 %108, ptr %15, align 4, !tbaa !8
  %109 = icmp slt i32 %108, 0
  br i1 %109, label %110, label %129

110:                                              ; preds = %97
  br label %111

111:                                              ; preds = %110
  br label %112

112:                                              ; preds = %111
  br label %113

113:                                              ; preds = %112
  %114 = load i64, ptr @H5E_OHDR_g, align 8, !tbaa !17
  %115 = load i64, ptr @H5E_CANTDELETE_g, align 8, !tbaa !17
  %116 = call i32 (ptr, ptr, i32, i64, i64, ptr, ...) @H5E_printf_stack(ptr noundef @.str, ptr noundef @__func__.H5O_msg_remove_op, i32 noundef 926, i64 noundef %114, i64 noundef %115, ptr noundef @.str.23)
  br label %117

117:                                              ; preds = %113
  br label %118

118:                                              ; preds = %117
  store i8 1, ptr %16, align 1, !tbaa !13
  %119 = load i8, ptr %16, align 1, !tbaa !13, !range !15, !noundef !16
  %120 = trunc i8 %119 to i1
  %121 = zext i1 %120 to i8
  store i8 %121, ptr %16, align 1, !tbaa !13
  br label %122

122:                                              ; preds = %118
  br label %123

123:                                              ; preds = %122
  br label %124

124:                                              ; preds = %123
  store i32 -1, ptr %15, align 4, !tbaa !8
  br label %130

125:                                              ; No predecessors!
  br label %126

126:                                              ; preds = %125
  br label %127

127:                                              ; preds = %126
  br label %128

128:                                              ; preds = %127
  br label %129

129:                                              ; preds = %128, %97
  br label %130

130:                                              ; preds = %129, %124, %92, %49
  %131 = load ptr, ptr %13, align 8, !tbaa !11
  %132 = icmp ne ptr %131, null
  br i1 %132, label %133, label %153

133:                                              ; preds = %130
  %134 = load ptr, ptr %13, align 8, !tbaa !11
  %135 = call i32 @H5O_unpin(ptr noundef %134)
  %136 = icmp slt i32 %135, 0
  br i1 %136, label %137, label %153

137:                                              ; preds = %133
  br label %138

138:                                              ; preds = %137
  br label %139

139:                                              ; preds = %138
  br label %140

140:                                              ; preds = %139
  %141 = load i64, ptr @H5E_OHDR_g, align 8, !tbaa !17
  %142 = load i64, ptr @H5E_CANTUNPIN_g, align 8, !tbaa !17
  %143 = call i32 (ptr, ptr, i32, i64, i64, ptr, ...) @H5E_printf_stack(ptr noundef @.str, ptr noundef @__func__.H5O_msg_remove_op, i32 noundef 930, i64 noundef %141, i64 noundef %142, ptr noundef @.str.4)
  br label %144

144:                                              ; preds = %140
  br label %145

145:                                              ; preds = %144
  store i8 1, ptr %16, align 1, !tbaa !13
  %146 = load i8, ptr %16, align 1, !tbaa !13, !range !15, !noundef !16
  %147 = trunc i8 %146 to i1
  %148 = zext i1 %147 to i8
  store i8 %148, ptr %16, align 1, !tbaa !13
  br label %149

149:                                              ; preds = %145
  br label %150

150:                                              ; preds = %149
  store i32 -1, ptr %15, align 4, !tbaa !8
  br label %151

151:                                              ; preds = %150
  br label %152

152:                                              ; preds = %151
  br label %153

153:                                              ; preds = %152, %133, %130
  br label %154

154:                                              ; preds = %153, %62
  %155 = load i32, ptr %15, align 4, !tbaa !8
  call void @llvm.lifetime.end.p0(i64 1, ptr %16) #5
  call void @llvm.lifetime.end.p0(i64 4, ptr %15) #5
  call void @llvm.lifetime.end.p0(i64 8, ptr %14) #5
  call void @llvm.lifetime.end.p0(i64 8, ptr %13) #5
  ret i32 %155
}