; Function Attrs: nounwind uwtable
define range(i32 -1, 1) i32 @H5O_msg_remove_op(ptr noundef %0, i32 noundef %1, i32 noundef %2, ptr noundef %3, ptr noundef %4, i1 noundef zeroext %5) local_unnamed_addr #0 {
  %7 = load i8, ptr @H5O_init_g, align 1, !tbaa !3, !range !7, !noundef !8
  %8 = trunc nuw i8 %7 to i1
  %9 = load i8, ptr @H5_libterm_g, align 1, !range !7
  %10 = trunc nuw i8 %9 to i1
  %11 = select i1 %8, i1 true, i1 %10
  br i1 %11, label %19, label %12, !prof !9

12:                                               ; preds = %6
  store i8 1, ptr @H5O_init_g, align 1, !tbaa !3
  %13 = tail call i32 @H5O__init_package() #7
  %14 = icmp slt i32 %13, 0
  br i1 %14, label %15, label %._crit_edge

._crit_edge:                                      ; preds = %12
  %.pre = load i8, ptr @H5O_init_g, align 1, !tbaa !3, !range !7
  %.pre22 = load i8, ptr @H5_libterm_g, align 1, !range !7
  %.pre23 = trunc nuw i8 %.pre to i1
  %.pre24 = trunc nuw i8 %.pre22 to i1
  br label %19

15:                                               ; preds = %12
  store i8 0, ptr @H5O_init_g, align 1, !tbaa !3
  %16 = load i64, ptr @H5E_FUNC_g, align 8, !tbaa !10
  %17 = load i64, ptr @H5E_CANTINIT_g, align 8, !tbaa !10
  %18 = tail call i32 (ptr, ptr, i32, i64, i64, ptr, ...) @H5E_printf_stack(ptr noundef nonnull @.str, ptr noundef nonnull @__func__.H5O_msg_remove_op, i32 noundef 909, i64 noundef %16, i64 noundef %17, ptr noundef nonnull @.str.1) #7
  br label %.thread

19:                                               ; preds = %._crit_edge, %6
  %.pre-phi25 = phi i1 [ %.pre24, %._crit_edge ], [ %10, %6 ]
  %.pre-phi = phi i1 [ %.pre23, %._crit_edge ], [ %8, %6 ]
  %20 = xor i1 %.pre-phi25, true
  %21 = select i1 %.pre-phi, i1 true, i1 %20
  br i1 %21, label %22, label %.thread, !prof !9

22:                                               ; preds = %19
  %23 = zext i32 %1 to i64
  %24 = getelementptr inbounds nuw [26 x ptr], ptr @H5O_msg_class_g, i64 0, i64 %23
  %25 = load ptr, ptr %24, align 8, !tbaa !16
  %26 = tail call ptr @H5O_pin(ptr noundef %0) #7
  %27 = icmp eq ptr %26, null
  br i1 %27, label %28, label %32

28:                                               ; preds = %22
  %29 = load i64, ptr @H5E_OHDR_g, align 8, !tbaa !10
  %30 = load i64, ptr @H5E_CANTPIN_g, align 8, !tbaa !10
  %31 = tail call i32 (ptr, ptr, i32, i64, i64, ptr, ...) @H5E_printf_stack(ptr noundef nonnull @.str, ptr noundef nonnull @__func__.H5O_msg_remove_op, i32 noundef 922, i64 noundef %29, i64 noundef %30, ptr noundef nonnull @.str.2) #7
  br label %.thread

32:                                               ; preds = %22
  %33 = load ptr, ptr %0, align 8, !tbaa !12
  %34 = tail call i32 @H5O__msg_remove_real(ptr noundef %33, ptr noundef nonnull %26, ptr noundef %25, i32 noundef %2, ptr noundef %3, ptr noundef %4, i1 noundef zeroext %5)
  %35 = icmp slt i32 %34, 0
  br i1 %35, label %36, label %40

36:                                               ; preds = %32
  %37 = load i64, ptr @H5E_OHDR_g, align 8, !tbaa !10
  %38 = load i64, ptr @H5E_CANTDELETE_g, align 8, !tbaa !10
  %39 = tail call i32 (ptr, ptr, i32, i64, i64, ptr, ...) @H5E_printf_stack(ptr noundef nonnull @.str, ptr noundef nonnull @__func__.H5O_msg_remove_op, i32 noundef 926, i64 noundef %37, i64 noundef %38, ptr noundef nonnull @.str.23) #7
  br label %40

40:                                               ; preds = %36, %32
  %.0 = phi i32 [ -1, %36 ], [ 0, %32 ]
  %41 = tail call i32 @H5O_unpin(ptr noundef nonnull %26) #7
  %42 = icmp slt i32 %41, 0
  br i1 %42, label %43, label %.thread

43:                                               ; preds = %40
  %44 = load i64, ptr @H5E_OHDR_g, align 8, !tbaa !10
  %45 = load i64, ptr @H5E_CANTUNPIN_g, align 8, !tbaa !10
  %46 = tail call i32 (ptr, ptr, i32, i64, i64, ptr, ...) @H5E_printf_stack(ptr noundef nonnull @.str, ptr noundef nonnull @__func__.H5O_msg_remove_op, i32 noundef 930, i64 noundef %44, i64 noundef %45, ptr noundef nonnull @.str.4) #7
  br label %.thread

.thread:                                          ; preds = %28, %15, %40, %43, %19
  %.1 = phi i32 [ -1, %43 ], [ %.0, %40 ], [ -1, %19 ], [ -1, %15 ], [ -1, %28 ]
  ret i32 %.1
}